Certificate:
    Data:
        Version: 3 (0x2)
        Serial Number: 66 (0x42)
        Signature Algorithm: sha1WithRSAEncryption
        Issuer: CN=Bionet CA, C=US, ST=Colorado, L=Boulder, O=BioServe Space Technologies/emailAddress=bionet@bioserve.colorado.edu
        Validity
            Not Before: Apr 29 16:47:55 2010 GMT
            Not After : Apr 29 16:47:55 2011 GMT
        Subject: C=US, ST=Colorado, O=BioServe Space Technologies, OU=Node or Client, CN=ENV::HOSTNAME/emailAddress=bionet@bioserve.colorado.edu
        Subject Public Key Info:
            Public Key Algorithm: rsaEncryption
            RSA Public Key: (2048 bit)
                Modulus (2048 bit):
                    00:db:b3:a8:4d:78:20:5e:5f:a8:ea:00:cb:99:69:
                    f9:4d:ae:23:e6:d5:0e:27:59:ad:1e:f4:15:2b:37:
                    27:0d:c2:b4:54:98:78:f8:b9:66:47:06:23:55:a4:
                    e8:d1:71:0c:76:2f:f8:bc:46:3f:e5:af:d8:37:c3:
                    bb:c9:3a:87:c7:99:56:c7:d0:76:9c:e7:74:e1:09:
                    bf:34:b0:33:86:5c:f2:41:b3:cd:be:d5:5b:43:5e:
                    48:91:0b:dc:e5:e6:85:b9:08:e0:04:30:99:51:9d:
                    35:22:d5:aa:a6:d7:fd:ec:b3:4c:c8:60:12:fb:d5:
                    f7:dc:4a:51:ec:11:00:f2:c7:26:5f:07:3f:b4:a2:
                    df:bd:d3:dc:8d:a4:e6:fe:c3:53:9c:e5:15:51:58:
                    e9:3d:7f:47:75:f3:cc:07:f6:ce:58:ee:62:f6:1a:
                    f0:54:15:d2:e6:f3:b9:e4:7f:4c:43:ca:53:95:c2:
                    39:6f:d6:d7:94:61:5d:0e:7f:20:c0:50:6a:a1:7f:
                    17:d9:a2:a6:46:c4:d3:c8:43:d2:07:a7:b5:1c:86:
                    78:fd:00:db:ec:c1:c7:28:2b:b3:1f:ec:74:cc:f3:
                    4e:fd:8c:49:41:a2:7f:1d:03:17:59:27:89:9a:35:
                    66:5f:4c:a6:a7:39:e4:ca:c1:d7:2d:c7:5d:f7:f5:
                    16:4d
                Exponent: 65537 (0x10001)
        X509v3 extensions:
            X509v3 Basic Constraints: 
                CA:FALSE
            X509v3 Subject Key Identifier: 
                F5:C6:3E:4A:88:B1:EA:75:DE:95:EA:26:6A:ED:26:65:96:71:BA:BB
            X509v3 Authority Key Identifier: 
                keyid:5D:91:47:A4:76:79:AA:9E:84:2E:A5:C8:10:61:51:7B:B4:B0:0C:B3
                DirName:/CN=Bionet CA/C=US/ST=Colorado/L=Boulder/O=BioServe Space Technologies/emailAddress=bionet@bioserve.colorado.edu
                serial:C2:23:EA:31:71:CE:51:D9

            Netscape CA Revocation Url: 
                https://bioserve.colrado.edu/ca-crl.pem
    Signature Algorithm: sha1WithRSAEncryption
        74:ec:81:9e:a0:9c:75:55:dc:8d:10:ca:53:2c:20:d1:57:7d:
        29:98:40:e1:12:b5:80:d0:7c:15:47:90:60:7c:f7:28:8e:34:
        56:4c:b7:e1:c7:26:4f:19:a3:29:e7:62:0f:0a:2a:78:7d:2e:
        5c:34:bf:d7:6a:ff:bd:df:f7:00:d4:d6:09:6d:59:fc:a4:f6:
        b1:d3:c3:77:26:d6:bd:a7:fa:b8:fb:d7:c0:d3:e2:f5:0c:1a:
        93:30:40:2d:be:25:09:99:af:c3:f7:63:2a:e5:51:44:06:b7:
        ca:14:e0:64:25:a0:0f:f1:9f:45:28:08:1d:49:24:4d:0d:af:
        c7:8e:ee:62:1f:84:20:33:eb:5e:b6:b5:2d:6f:34:d8:02:80:
        cd:d3:e7:61:7b:4c:9b:4a:e0:88:5c:e0:bb:67:39:51:19:d0:
        f7:49:b5:76:f8:b7:04:74:4d:0c:f7:65:d2:b7:ad:d3:4b:e0:
        1b:5f:45:59:00:22:51:85:a7:33:b8:f3:07:ce:3d:26:ae:b6:
        46:ae:f7:f0:ca:ab:5e:05:e2:21:ad:ee:ef:ae:a3:5b:de:11:
        e7:ae:bf:c1:12:c0:f5:3e:8c:3c:9f:57:af:18:85:e8:dc:bf:
        cd:e1:92:b0:37:85:86:d7:56:9d:cc:74:9d:7d:40:68:3a:bd:
        1f:64:2e:82
-----BEGIN CERTIFICATE-----
MIIE8zCCA9ugAwIBAgIBQjANBgkqhkiG9w0BAQUFADCBmTESMBAGA1UEAxMJQmlv
bmV0IENBMQswCQYDVQQGEwJVUzERMA8GA1UECBMIQ29sb3JhZG8xEDAOBgNVBAcT
B0JvdWxkZXIxJDAiBgNVBAoTG0Jpb1NlcnZlIFNwYWNlIFRlY2hub2xvZ2llczEr
MCkGCSqGSIb3DQEJARYcYmlvbmV0QGJpb3NlcnZlLmNvbG9yYWRvLmVkdTAeFw0x
MDA0MjkxNjQ3NTVaFw0xMTA0MjkxNjQ3NTVaMIGkMQswCQYDVQQGEwJVUzERMA8G
A1UECBMIQ29sb3JhZG8xJDAiBgNVBAoTG0Jpb1NlcnZlIFNwYWNlIFRlY2hub2xv
Z2llczEXMBUGA1UECxMOTm9kZSBvciBDbGllbnQxFjAUBgNVBAMTDUVOVjo6SE9T
VE5BTUUxKzApBgkqhkiG9w0BCQEWHGJpb25ldEBiaW9zZXJ2ZS5jb2xvcmFkby5l
ZHUwggEiMA0GCSqGSIb3DQEBAQUAA4IBDwAwggEKAoIBAQDbs6hNeCBeX6jqAMuZ
aflNriPm1Q4nWa0e9BUrNycNwrRUmHj4uWZHBiNVpOjRcQx2L/i8Rj/lr9g3w7vJ
OofHmVbH0Hac53ThCb80sDOGXPJBs82+1VtDXkiRC9zl5oW5COAEMJlRnTUi1aqm
1/3ss0zIYBL71ffcSlHsEQDyxyZfBz+0ot+909yNpOb+w1Oc5RVRWOk9f0d188wH
9s5Y7mL2GvBUFdLm87nkf0xDylOVwjlv1teUYV0OfyDAUGqhfxfZoqZGxNPIQ9IH
p7Uchnj9ANvswccoK7Mf7HTM8079jElBon8dAxdZJ4maNWZfTKanOeTKwdctx133
9RZNAgMBAAGjggE3MIIBMzAJBgNVHRMEAjAAMB0GA1UdDgQWBBT1xj5KiLHqdd6V
6iZq7SZllnG6uzCBzgYDVR0jBIHGMIHDgBRdkUekdnmqnoQupcgQYVF7tLAMs6GB
n6SBnDCBmTESMBAGA1UEAxMJQmlvbmV0IENBMQswCQYDVQQGEwJVUzERMA8GA1UE
CBMIQ29sb3JhZG8xEDAOBgNVBAcTB0JvdWxkZXIxJDAiBgNVBAoTG0Jpb1NlcnZl
IFNwYWNlIFRlY2hub2xvZ2llczErMCkGCSqGSIb3DQEJARYcYmlvbmV0QGJpb3Nl
cnZlLmNvbG9yYWRvLmVkdYIJAMIj6jFxzlHZMDYGCWCGSAGG+EIBBAQpFidodHRw
czovL2Jpb3NlcnZlLmNvbHJhZG8uZWR1L2NhLWNybC5wZW0wDQYJKoZIhvcNAQEF
BQADggEBAHTsgZ6gnHVV3I0QylMsINFXfSmYQOEStYDQfBVHkGB89yiONFZMt+HH
Jk8ZoynnYg8KKnh9Llw0v9dq/73f9wDU1gltWfyk9rHTw3cm1r2n+rj718DT4vUM
GpMwQC2+JQmZr8P3YyrlUUQGt8oU4GQloA/xn0UoCB1JJE0Nr8eO7mIfhCAz6162
tS1vNNgCgM3T52F7TJtK4Ihc4LtnOVEZ0PdJtXb4twR0TQz3ZdK3rdNL4BtfRVkA
IlGFpzO48wfOPSautkau9/DKq14F4iGt7u+uo1veEeeuv8ESwPU+jDyfV68Yhejc
v83hkrA3hYbXVp3MdJ19QGg6vR9kLoI=
-----END CERTIFICATE-----
