Certificate:
    Data:
        Version: 3 (0x2)
        Serial Number: 45 (0x2d)
        Signature Algorithm: sha1WithRSAEncryption
        Issuer: CN=Bionet CA, C=US, ST=Colorado, L=Boulder, O=BioServe Space Technologies/emailAddress=bionet@bioserve.colorado.edu
        Validity
            Not Before: Apr 28 22:11:03 2009 GMT
            Not After : Apr 28 22:11:03 2010 GMT
        Subject: C=US, ST=Colorado, O=BioServe Space Technologies, OU=Node or Client, CN=ENV::HOSTNAME/emailAddress=bionet@bioserve.colorado.edu
        Subject Public Key Info:
            Public Key Algorithm: rsaEncryption
            RSA Public Key: (2048 bit)
                Modulus (2048 bit):
                    00:96:3e:27:06:5f:aa:99:10:7f:65:e9:6f:76:9e:
                    b4:8e:f2:69:e5:3f:d9:96:c9:25:d6:84:2f:9b:b6:
                    d3:43:4a:4b:d9:cb:7e:e8:c8:3f:57:5c:37:6f:f0:
                    af:8d:4d:95:05:ac:87:87:10:6b:64:9e:a1:fa:61:
                    33:0e:4a:56:be:79:1d:dc:76:01:a8:db:09:92:65:
                    7e:29:b8:b0:fe:ca:16:3a:4e:b9:8e:e2:84:15:92:
                    b3:0a:c1:39:4d:58:cb:c0:05:6f:07:76:d1:a0:3d:
                    35:67:06:ba:7b:e0:5e:3d:b9:eb:fc:eb:78:2d:d4:
                    03:d6:a7:05:d4:39:f3:34:1e:5d:59:70:57:b0:45:
                    87:71:35:f1:9e:dc:d4:8f:42:ba:75:11:28:77:a7:
                    f0:10:3d:14:6d:37:91:2e:da:3e:4d:57:40:8c:f1:
                    de:21:a6:fe:86:23:e2:b1:34:53:4f:ed:6d:f4:4d:
                    5a:11:1f:60:35:e2:17:bf:ac:58:0e:f8:ae:a3:58:
                    26:da:eb:39:62:9f:c9:55:3a:44:ad:f2:1c:a4:c3:
                    27:72:12:54:12:6c:02:04:95:8c:da:3f:fd:91:2e:
                    fa:f0:db:f8:1f:c7:9f:12:de:64:e0:ce:e9:bc:af:
                    f2:3d:dd:11:84:37:e1:f9:f7:14:57:62:95:a5:b5:
                    17:d1
                Exponent: 65537 (0x10001)
        X509v3 extensions:
            X509v3 Basic Constraints: 
                CA:FALSE
            X509v3 Subject Key Identifier: 
                AF:77:A8:07:D0:07:DF:4E:60:1D:FB:C5:67:81:C3:48:33:B7:32:56
            X509v3 Authority Key Identifier: 
                keyid:5D:91:47:A4:76:79:AA:9E:84:2E:A5:C8:10:61:51:7B:B4:B0:0C:B3
                DirName:/CN=Bionet CA/C=US/ST=Colorado/L=Boulder/O=BioServe Space Technologies/emailAddress=bionet@bioserve.colorado.edu
                serial:C2:23:EA:31:71:CE:51:D9

            Netscape CA Revocation Url: 
                https://bioserve.colrado.edu/ca-crl.pem
    Signature Algorithm: sha1WithRSAEncryption
        1d:48:cf:f7:bb:bc:31:3b:af:a2:e7:fa:34:99:6c:8a:c1:f6:
        e0:a6:61:09:5f:43:51:80:68:99:32:ac:6e:4a:7e:ab:05:05:
        d6:e1:b3:61:1f:74:f4:1f:62:c6:e8:e2:06:4a:f4:fb:f7:3f:
        51:4b:61:74:be:00:d6:03:fb:7c:70:f8:e4:61:1e:ee:7e:23:
        1e:fe:69:3c:c7:7d:b6:69:65:f7:44:5f:c0:ee:37:f2:0d:6e:
        56:4c:fd:b4:14:92:c0:cc:8b:54:ec:f8:9c:27:74:81:a0:0f:
        02:ba:84:fc:7e:0b:57:46:ce:3d:c4:ef:81:00:12:67:2e:f4:
        0c:56:a1:b2:dc:b9:57:2c:8d:c6:32:df:e5:ab:e4:cf:de:5c:
        61:6a:e7:7c:74:24:c3:1b:58:e6:c0:77:ce:d6:43:92:a6:1d:
        df:d4:d9:b6:8f:64:57:29:4f:8f:8b:f2:79:ca:01:f2:7d:5c:
        c4:cf:4a:c4:f1:31:3b:bc:3d:f6:67:88:ec:8c:d5:bf:79:61:
        2f:15:d9:c1:63:a2:70:4c:47:b1:26:f4:55:07:14:4b:3d:e0:
        83:f7:07:bd:5a:84:8a:7e:54:5b:14:25:bc:57:aa:a7:f5:87:
        6e:0c:da:01:66:52:30:03:19:93:36:0b:1b:65:da:73:f7:6c:
        c1:d1:aa:5f
-----BEGIN CERTIFICATE-----
MIIE8zCCA9ugAwIBAgIBLTANBgkqhkiG9w0BAQUFADCBmTESMBAGA1UEAxMJQmlv
bmV0IENBMQswCQYDVQQGEwJVUzERMA8GA1UECBMIQ29sb3JhZG8xEDAOBgNVBAcT
B0JvdWxkZXIxJDAiBgNVBAoTG0Jpb1NlcnZlIFNwYWNlIFRlY2hub2xvZ2llczEr
MCkGCSqGSIb3DQEJARYcYmlvbmV0QGJpb3NlcnZlLmNvbG9yYWRvLmVkdTAeFw0w
OTA0MjgyMjExMDNaFw0xMDA0MjgyMjExMDNaMIGkMQswCQYDVQQGEwJVUzERMA8G
A1UECBMIQ29sb3JhZG8xJDAiBgNVBAoTG0Jpb1NlcnZlIFNwYWNlIFRlY2hub2xv
Z2llczEXMBUGA1UECxMOTm9kZSBvciBDbGllbnQxFjAUBgNVBAMTDUVOVjo6SE9T
VE5BTUUxKzApBgkqhkiG9w0BCQEWHGJpb25ldEBiaW9zZXJ2ZS5jb2xvcmFkby5l
ZHUwggEiMA0GCSqGSIb3DQEBAQUAA4IBDwAwggEKAoIBAQCWPicGX6qZEH9l6W92
nrSO8mnlP9mWySXWhC+bttNDSkvZy37oyD9XXDdv8K+NTZUFrIeHEGtknqH6YTMO
Sla+eR3cdgGo2wmSZX4puLD+yhY6TrmO4oQVkrMKwTlNWMvABW8HdtGgPTVnBrp7
4F49uev863gt1APWpwXUOfM0Hl1ZcFewRYdxNfGe3NSPQrp1ESh3p/AQPRRtN5Eu
2j5NV0CM8d4hpv6GI+KxNFNP7W30TVoRH2A14he/rFgO+K6jWCba6zlin8lVOkSt
8hykwydyElQSbAIElYzaP/2RLvrw2/gfx58S3mTgzum8r/I93RGEN+H59xRXYpWl
tRfRAgMBAAGjggE3MIIBMzAJBgNVHRMEAjAAMB0GA1UdDgQWBBSvd6gH0AffTmAd
+8VngcNIM7cyVjCBzgYDVR0jBIHGMIHDgBRdkUekdnmqnoQupcgQYVF7tLAMs6GB
n6SBnDCBmTESMBAGA1UEAxMJQmlvbmV0IENBMQswCQYDVQQGEwJVUzERMA8GA1UE
CBMIQ29sb3JhZG8xEDAOBgNVBAcTB0JvdWxkZXIxJDAiBgNVBAoTG0Jpb1NlcnZl
IFNwYWNlIFRlY2hub2xvZ2llczErMCkGCSqGSIb3DQEJARYcYmlvbmV0QGJpb3Nl
cnZlLmNvbG9yYWRvLmVkdYIJAMIj6jFxzlHZMDYGCWCGSAGG+EIBBAQpFidodHRw
czovL2Jpb3NlcnZlLmNvbHJhZG8uZWR1L2NhLWNybC5wZW0wDQYJKoZIhvcNAQEF
BQADggEBAB1Iz/e7vDE7r6Ln+jSZbIrB9uCmYQlfQ1GAaJkyrG5KfqsFBdbhs2Ef
dPQfYsbo4gZK9Pv3P1FLYXS+ANYD+3xw+ORhHu5+Ix7+aTzHfbZpZfdEX8DuN/IN
blZM/bQUksDMi1Ts+JwndIGgDwK6hPx+C1dGzj3E74EAEmcu9AxWobLcuVcsjcYy
3+Wr5M/eXGFq53x0JMMbWObAd87WQ5KmHd/U2baPZFcpT4+L8nnKAfJ9XMTPSsTx
MTu8PfZniOyM1b95YS8V2cFjonBMR7Em9FUHFEs94IP3B71ahIp+VFsUJbxXqqf1
h24M2gFmUjADGZM2Cxtl2nP3bMHRql8=
-----END CERTIFICATE-----
