Certificate:
    Data:
        Version: 3 (0x2)
        Serial Number: 42 (0x2a)
        Signature Algorithm: sha1WithRSAEncryption
        Issuer: CN=Bionet CA, C=US, ST=Colorado, L=Boulder, O=BioServe Space Technologies/emailAddress=bionet@bioserve.colorado.edu
        Validity
            Not Before: Apr 28 22:09:53 2009 GMT
            Not After : Apr 28 22:09:53 2010 GMT
        Subject: C=US, ST=Colorado, O=BioServe Space Technologies, OU=Node or Client, CN=ENV::HOSTNAME/emailAddress=bionet@bioserve.colorado.edu
        Subject Public Key Info:
            Public Key Algorithm: rsaEncryption
            RSA Public Key: (2048 bit)
                Modulus (2048 bit):
                    00:b0:c9:86:07:27:19:c9:d2:85:e2:a9:0b:b0:fd:
                    a0:b7:09:a0:b2:40:78:36:e4:89:19:43:16:b1:8a:
                    36:ee:01:c6:ce:20:95:d4:9f:50:c8:3a:d0:3f:75:
                    57:f8:cc:6c:cb:cd:82:29:c1:35:4c:7e:22:02:46:
                    fd:a0:c3:46:60:03:5d:62:fd:f1:ee:1a:af:e9:39:
                    b6:1c:fa:c7:9a:32:da:30:ef:ce:ff:3c:e2:c7:43:
                    6f:23:80:4c:21:ad:1a:3f:a4:50:5c:90:2e:9c:de:
                    63:d9:ac:a4:ce:1e:31:22:8d:c8:94:4f:b4:44:ab:
                    06:8b:05:6f:ba:fa:f0:34:bb:01:ff:85:8a:e4:b0:
                    d2:1e:a8:e7:3f:cd:06:c7:7d:a2:4c:ca:b0:ce:cf:
                    be:1a:2a:27:13:07:1f:67:52:d5:a7:1a:f8:a4:28:
                    4e:de:38:0d:b2:ab:68:ad:78:5f:49:48:27:a6:14:
                    24:5d:a4:6f:df:69:f1:0a:04:3c:35:c0:49:30:45:
                    f3:8c:5d:c2:75:ca:87:5b:c1:c7:2f:b0:2a:f3:cb:
                    19:f5:64:93:48:c6:96:38:f3:bf:1a:1c:0a:eb:4a:
                    40:3f:22:17:bb:d1:02:60:f6:40:36:7a:ec:21:09:
                    8e:6d:58:84:bb:ce:9d:10:2e:0a:93:4e:bd:f3:98:
                    8f:57
                Exponent: 65537 (0x10001)
        X509v3 extensions:
            X509v3 Basic Constraints: 
                CA:FALSE
            X509v3 Subject Key Identifier: 
                A8:51:E7:C7:FA:9B:6D:20:73:F1:36:A9:73:E4:5E:5A:C8:14:1F:FE
            X509v3 Authority Key Identifier: 
                keyid:5D:91:47:A4:76:79:AA:9E:84:2E:A5:C8:10:61:51:7B:B4:B0:0C:B3
                DirName:/CN=Bionet CA/C=US/ST=Colorado/L=Boulder/O=BioServe Space Technologies/emailAddress=bionet@bioserve.colorado.edu
                serial:C2:23:EA:31:71:CE:51:D9

            Netscape CA Revocation Url: 
                https://bioserve.colrado.edu/ca-crl.pem
    Signature Algorithm: sha1WithRSAEncryption
        49:8d:c0:11:9e:27:7f:44:ae:b3:4e:d7:a9:56:b8:3c:56:9e:
        9d:cb:0f:de:65:48:d0:3e:e2:92:ca:18:f1:49:b3:1a:ac:dc:
        a0:5e:90:d9:9d:23:4b:1d:93:44:b6:1a:b5:89:96:c2:0b:39:
        4a:a0:57:f5:9a:09:e6:4e:08:3e:5b:e9:25:08:af:2c:96:40:
        af:96:65:f7:40:af:92:9d:23:4b:35:0a:9a:69:32:29:04:1a:
        f8:7b:cd:ef:4b:44:6a:11:e5:fe:c2:d4:f7:88:67:2e:05:1f:
        49:0f:f7:b7:b4:07:d2:be:e3:2a:12:c3:bc:bb:8d:66:5e:fa:
        36:64:80:09:7e:93:4f:46:b5:0c:79:35:f2:34:29:bc:3a:d6:
        d0:83:ad:62:8c:0b:25:89:3d:a7:fc:e2:c6:57:0c:00:84:bd:
        aa:ce:4a:57:b1:23:28:db:e8:1a:66:8c:01:cf:f4:32:de:ac:
        21:fd:1d:56:bf:28:d7:30:06:0f:48:4e:e7:41:20:31:57:36:
        30:18:e0:04:74:ed:1c:3e:6b:0d:26:ec:69:70:54:5b:d0:62:
        ca:a8:c5:70:00:6e:84:08:c2:0c:6f:2b:07:aa:71:32:7e:df:
        59:6a:b6:e7:d0:0c:4f:4a:6b:29:c2:7f:f4:ac:fe:b8:60:84:
        42:cf:9a:64
-----BEGIN CERTIFICATE-----
MIIE8zCCA9ugAwIBAgIBKjANBgkqhkiG9w0BAQUFADCBmTESMBAGA1UEAxMJQmlv
bmV0IENBMQswCQYDVQQGEwJVUzERMA8GA1UECBMIQ29sb3JhZG8xEDAOBgNVBAcT
B0JvdWxkZXIxJDAiBgNVBAoTG0Jpb1NlcnZlIFNwYWNlIFRlY2hub2xvZ2llczEr
MCkGCSqGSIb3DQEJARYcYmlvbmV0QGJpb3NlcnZlLmNvbG9yYWRvLmVkdTAeFw0w
OTA0MjgyMjA5NTNaFw0xMDA0MjgyMjA5NTNaMIGkMQswCQYDVQQGEwJVUzERMA8G
A1UECBMIQ29sb3JhZG8xJDAiBgNVBAoTG0Jpb1NlcnZlIFNwYWNlIFRlY2hub2xv
Z2llczEXMBUGA1UECxMOTm9kZSBvciBDbGllbnQxFjAUBgNVBAMTDUVOVjo6SE9T
VE5BTUUxKzApBgkqhkiG9w0BCQEWHGJpb25ldEBiaW9zZXJ2ZS5jb2xvcmFkby5l
ZHUwggEiMA0GCSqGSIb3DQEBAQUAA4IBDwAwggEKAoIBAQCwyYYHJxnJ0oXiqQuw
/aC3CaCyQHg25IkZQxaxijbuAcbOIJXUn1DIOtA/dVf4zGzLzYIpwTVMfiICRv2g
w0ZgA11i/fHuGq/pObYc+seaMtow787/POLHQ28jgEwhrRo/pFBckC6c3mPZrKTO
HjEijciUT7REqwaLBW+6+vA0uwH/hYrksNIeqOc/zQbHfaJMyrDOz74aKicTBx9n
UtWnGvikKE7eOA2yq2iteF9JSCemFCRdpG/fafEKBDw1wEkwRfOMXcJ1yodbwccv
sCrzyxn1ZJNIxpY4878aHArrSkA/Ihe70QJg9kA2euwhCY5tWIS7zp0QLgqTTr3z
mI9XAgMBAAGjggE3MIIBMzAJBgNVHRMEAjAAMB0GA1UdDgQWBBSoUefH+pttIHPx
Nqlz5F5ayBQf/jCBzgYDVR0jBIHGMIHDgBRdkUekdnmqnoQupcgQYVF7tLAMs6GB
n6SBnDCBmTESMBAGA1UEAxMJQmlvbmV0IENBMQswCQYDVQQGEwJVUzERMA8GA1UE
CBMIQ29sb3JhZG8xEDAOBgNVBAcTB0JvdWxkZXIxJDAiBgNVBAoTG0Jpb1NlcnZl
IFNwYWNlIFRlY2hub2xvZ2llczErMCkGCSqGSIb3DQEJARYcYmlvbmV0QGJpb3Nl
cnZlLmNvbG9yYWRvLmVkdYIJAMIj6jFxzlHZMDYGCWCGSAGG+EIBBAQpFidodHRw
czovL2Jpb3NlcnZlLmNvbHJhZG8uZWR1L2NhLWNybC5wZW0wDQYJKoZIhvcNAQEF
BQADggEBAEmNwBGeJ39ErrNO16lWuDxWnp3LD95lSNA+4pLKGPFJsxqs3KBekNmd
I0sdk0S2GrWJlsILOUqgV/WaCeZOCD5b6SUIryyWQK+WZfdAr5KdI0s1CpppMikE
Gvh7ze9LRGoR5f7C1PeIZy4FH0kP97e0B9K+4yoSw7y7jWZe+jZkgAl+k09GtQx5
NfI0Kbw61tCDrWKMCyWJPaf84sZXDACEvarOSlexIyjb6BpmjAHP9DLerCH9HVa/
KNcwBg9ITudBIDFXNjAY4AR07Rw+aw0m7GlwVFvQYsqoxXAAboQIwgxvKweqcTJ+
31lqtufQDE9KaynCf/Ss/rhghELPmmQ=
-----END CERTIFICATE-----
