Certificate:
    Data:
        Version: 3 (0x2)
        Serial Number: 63 (0x3f)
        Signature Algorithm: sha1WithRSAEncryption
        Issuer: CN=Bionet CA, C=US, ST=Colorado, L=Boulder, O=BioServe Space Technologies/emailAddress=bionet@bioserve.colorado.edu
        Validity
            Not Before: Apr 28 14:58:32 2010 GMT
            Not After : Apr 28 14:58:32 2011 GMT
        Subject: C=US, ST=Colorado, O=BioServe Space Technologies, OU=Node or Client, CN=ENV::HOSTNAME/emailAddress=bionet@bioserve.colorado.edu
        Subject Public Key Info:
            Public Key Algorithm: rsaEncryption
            RSA Public Key: (2048 bit)
                Modulus (2048 bit):
                    00:fb:aa:eb:0e:67:53:12:eb:60:34:c0:db:77:cb:
                    8d:ee:a3:5a:47:6d:4b:48:1b:09:e1:39:a1:46:72:
                    98:ce:88:5f:ef:a0:18:89:05:ae:ad:73:3f:a6:06:
                    a1:11:ac:a6:ce:f9:a5:ea:3a:fc:d3:92:30:bb:70:
                    2f:a3:09:60:d6:ca:bc:d7:01:90:ea:08:2e:18:b8:
                    93:a6:4d:09:5f:e1:58:d9:16:09:53:6c:7f:b5:75:
                    bf:1a:5b:e5:b1:58:3a:93:b6:a2:03:23:fd:5f:53:
                    13:2d:af:5a:97:7d:5a:c1:c7:3b:bd:82:b3:02:21:
                    d8:d7:18:d7:ec:06:01:fb:bf:7e:66:18:fe:6a:73:
                    10:fc:68:75:be:98:d2:7e:c3:19:d5:5d:a4:9b:ae:
                    f9:81:6d:f5:35:95:f5:c7:bf:96:67:74:6b:2c:3c:
                    74:7b:10:8d:0e:ce:ff:e8:b4:fd:c0:df:10:97:05:
                    3b:d6:fb:a5:c3:7b:cb:8e:8f:44:85:c7:43:26:fd:
                    99:12:c8:24:62:e3:f8:94:42:82:31:82:1e:10:fd:
                    3c:24:cf:ea:9b:6b:43:a0:f6:53:a8:d8:39:20:76:
                    a6:a5:16:6f:bd:b4:3d:83:5e:3c:88:ba:55:2e:64:
                    57:bb:94:36:d3:2b:fb:5f:50:28:8b:57:90:70:35:
                    f7:7b
                Exponent: 65537 (0x10001)
        X509v3 extensions:
            X509v3 Basic Constraints: 
                CA:FALSE
            X509v3 Subject Key Identifier: 
                62:27:27:EF:83:CE:A5:41:12:EE:79:B2:4B:18:31:1B:0F:85:88:A5
            X509v3 Authority Key Identifier: 
                keyid:5D:91:47:A4:76:79:AA:9E:84:2E:A5:C8:10:61:51:7B:B4:B0:0C:B3
                DirName:/CN=Bionet CA/C=US/ST=Colorado/L=Boulder/O=BioServe Space Technologies/emailAddress=bionet@bioserve.colorado.edu
                serial:C2:23:EA:31:71:CE:51:D9

            Netscape CA Revocation Url: 
                https://bioserve.colrado.edu/ca-crl.pem
    Signature Algorithm: sha1WithRSAEncryption
        77:99:85:b4:d6:02:66:0e:6e:1c:8d:26:c5:f9:fd:63:fb:59:
        b3:29:86:66:55:81:13:2e:57:fe:3b:96:74:de:a2:c6:8d:c1:
        cd:4e:48:fc:aa:44:59:d6:75:a0:1b:b6:da:16:03:19:8f:5f:
        c2:18:8d:86:30:45:ba:b4:7f:65:82:c6:4b:fa:19:87:9b:f0:
        a0:67:d9:21:c7:4c:e4:9c:46:77:29:c6:b9:e0:0c:cd:a4:c3:
        5a:c7:55:98:2a:93:1c:35:36:c4:8f:71:be:d6:3d:15:36:c8:
        d3:a1:bc:80:89:f7:6c:8b:07:26:24:ea:84:62:b3:97:09:c4:
        12:b4:6a:77:58:21:9f:e6:24:28:30:2b:2f:0d:9f:18:17:01:
        6f:15:8c:f7:fe:d2:79:c3:d4:3c:60:d4:47:ad:3c:58:1d:8c:
        7a:6a:83:f0:90:2c:57:dd:4d:14:ae:b2:5e:65:9f:31:00:8f:
        fe:5d:6d:56:4e:93:90:1e:94:73:5c:a7:4a:5a:67:0e:6c:0b:
        41:31:a4:90:31:c1:ba:65:d9:f6:ca:b5:50:43:1c:b2:c9:8e:
        b6:c8:e7:63:ad:fb:68:00:b9:99:79:26:d1:b7:a7:3a:19:d8:
        84:78:2c:e2:ff:73:88:b6:00:44:fc:ed:e9:65:00:12:cd:9f:
        51:b2:cf:97
-----BEGIN CERTIFICATE-----
MIIE8zCCA9ugAwIBAgIBPzANBgkqhkiG9w0BAQUFADCBmTESMBAGA1UEAxMJQmlv
bmV0IENBMQswCQYDVQQGEwJVUzERMA8GA1UECBMIQ29sb3JhZG8xEDAOBgNVBAcT
B0JvdWxkZXIxJDAiBgNVBAoTG0Jpb1NlcnZlIFNwYWNlIFRlY2hub2xvZ2llczEr
MCkGCSqGSIb3DQEJARYcYmlvbmV0QGJpb3NlcnZlLmNvbG9yYWRvLmVkdTAeFw0x
MDA0MjgxNDU4MzJaFw0xMTA0MjgxNDU4MzJaMIGkMQswCQYDVQQGEwJVUzERMA8G
A1UECBMIQ29sb3JhZG8xJDAiBgNVBAoTG0Jpb1NlcnZlIFNwYWNlIFRlY2hub2xv
Z2llczEXMBUGA1UECxMOTm9kZSBvciBDbGllbnQxFjAUBgNVBAMTDUVOVjo6SE9T
VE5BTUUxKzApBgkqhkiG9w0BCQEWHGJpb25ldEBiaW9zZXJ2ZS5jb2xvcmFkby5l
ZHUwggEiMA0GCSqGSIb3DQEBAQUAA4IBDwAwggEKAoIBAQD7qusOZ1MS62A0wNt3
y43uo1pHbUtIGwnhOaFGcpjOiF/voBiJBa6tcz+mBqERrKbO+aXqOvzTkjC7cC+j
CWDWyrzXAZDqCC4YuJOmTQlf4VjZFglTbH+1db8aW+WxWDqTtqIDI/1fUxMtr1qX
fVrBxzu9grMCIdjXGNfsBgH7v35mGP5qcxD8aHW+mNJ+wxnVXaSbrvmBbfU1lfXH
v5ZndGssPHR7EI0Ozv/otP3A3xCXBTvW+6XDe8uOj0SFx0Mm/ZkSyCRi4/iUQoIx
gh4Q/Twkz+qba0Og9lOo2DkgdqalFm+9tD2DXjyIulUuZFe7lDbTK/tfUCiLV5Bw
Nfd7AgMBAAGjggE3MIIBMzAJBgNVHRMEAjAAMB0GA1UdDgQWBBRiJyfvg86lQRLu
ebJLGDEbD4WIpTCBzgYDVR0jBIHGMIHDgBRdkUekdnmqnoQupcgQYVF7tLAMs6GB
n6SBnDCBmTESMBAGA1UEAxMJQmlvbmV0IENBMQswCQYDVQQGEwJVUzERMA8GA1UE
CBMIQ29sb3JhZG8xEDAOBgNVBAcTB0JvdWxkZXIxJDAiBgNVBAoTG0Jpb1NlcnZl
IFNwYWNlIFRlY2hub2xvZ2llczErMCkGCSqGSIb3DQEJARYcYmlvbmV0QGJpb3Nl
cnZlLmNvbG9yYWRvLmVkdYIJAMIj6jFxzlHZMDYGCWCGSAGG+EIBBAQpFidodHRw
czovL2Jpb3NlcnZlLmNvbHJhZG8uZWR1L2NhLWNybC5wZW0wDQYJKoZIhvcNAQEF
BQADggEBAHeZhbTWAmYObhyNJsX5/WP7WbMphmZVgRMuV/47lnTeosaNwc1OSPyq
RFnWdaAbttoWAxmPX8IYjYYwRbq0f2WCxkv6GYeb8KBn2SHHTOScRncpxrngDM2k
w1rHVZgqkxw1NsSPcb7WPRU2yNOhvICJ92yLByYk6oRis5cJxBK0andYIZ/mJCgw
Ky8NnxgXAW8VjPf+0nnD1Dxg1EetPFgdjHpqg/CQLFfdTRSusl5lnzEAj/5dbVZO
k5AelHNcp0paZw5sC0ExpJAxwbpl2fbKtVBDHLLJjrbI52Ot+2gAuZl5JtG3pzoZ
2IR4LOL/c4i2AET87ellABLNn1Gyz5c=
-----END CERTIFICATE-----
