Certificate:
    Data:
        Version: 3 (0x2)
        Serial Number: 65 (0x41)
        Signature Algorithm: sha1WithRSAEncryption
        Issuer: CN=Bionet CA, C=US, ST=Colorado, L=Boulder, O=BioServe Space Technologies/emailAddress=bionet@bioserve.colorado.edu
        Validity
            Not Before: Apr 28 14:58:56 2010 GMT
            Not After : Apr 28 14:58:56 2011 GMT
        Subject: C=US, ST=Colorado, O=BioServe Space Technologies, OU=Node or Client, CN=ENV::HOSTNAME/emailAddress=bionet@bioserve.colorado.edu
        Subject Public Key Info:
            Public Key Algorithm: rsaEncryption
            RSA Public Key: (2048 bit)
                Modulus (2048 bit):
                    00:cb:51:9e:67:74:45:f2:70:07:07:e8:1a:3f:e2:
                    ae:d7:61:43:3f:f3:29:67:e5:7f:57:95:91:b6:a1:
                    7c:53:02:72:27:3e:f3:06:ae:a1:4b:e9:75:d3:6f:
                    5d:b1:9b:9a:a3:19:2a:1d:0c:ea:27:26:b0:50:50:
                    7b:87:08:7d:6a:43:ac:5b:1d:21:10:f5:3e:f0:74:
                    d1:f3:43:84:f5:fd:27:a1:c0:bc:81:02:f3:7c:d8:
                    08:cc:ca:be:e5:6f:30:3e:fe:a1:a8:17:29:4f:fb:
                    ef:36:2b:fa:10:51:d8:b0:c7:ca:0c:03:37:8f:3f:
                    c2:be:2c:cb:b1:0a:b2:67:0e:62:a3:2d:fd:70:90:
                    88:8e:d1:de:7c:9d:11:b4:c2:fc:b9:a7:cb:96:8d:
                    34:ee:07:d0:18:12:b5:be:9c:5f:d7:1a:af:56:0d:
                    47:db:8e:3d:c0:53:c1:33:df:a4:6f:16:27:42:01:
                    10:72:35:23:23:70:9f:0f:36:8c:9b:3a:0f:90:9f:
                    77:aa:fb:24:60:eb:16:75:21:71:4a:bb:ea:b5:d0:
                    2d:d3:6b:0f:47:8f:24:b7:ba:39:1b:2b:3d:45:af:
                    84:14:50:a8:9a:bf:8a:8f:14:32:27:2c:f8:d8:cb:
                    ba:18:da:84:a7:87:8d:f4:fe:6e:03:70:dc:dc:55:
                    b5:47
                Exponent: 65537 (0x10001)
        X509v3 extensions:
            X509v3 Basic Constraints: 
                CA:FALSE
            X509v3 Subject Key Identifier: 
                B6:33:CD:FE:AB:A0:6D:B9:26:C6:96:68:77:CA:FF:20:71:DE:EA:54
            X509v3 Authority Key Identifier: 
                keyid:5D:91:47:A4:76:79:AA:9E:84:2E:A5:C8:10:61:51:7B:B4:B0:0C:B3
                DirName:/CN=Bionet CA/C=US/ST=Colorado/L=Boulder/O=BioServe Space Technologies/emailAddress=bionet@bioserve.colorado.edu
                serial:C2:23:EA:31:71:CE:51:D9

            Netscape CA Revocation Url: 
                https://bioserve.colrado.edu/ca-crl.pem
    Signature Algorithm: sha1WithRSAEncryption
        9e:86:1a:26:38:6d:bd:86:77:8e:7c:27:b4:13:4b:48:3b:4d:
        11:60:42:5f:b4:14:0b:58:0e:4f:30:f8:12:8f:e2:1c:bb:6f:
        e1:2c:3c:04:e7:59:22:53:26:8f:a2:b2:92:31:49:d6:18:9e:
        7d:9d:0a:88:f3:ad:7d:74:19:64:0a:69:fc:83:95:46:29:a4:
        09:c9:d9:d3:16:54:0e:1c:6f:d2:ff:82:2e:0a:01:6f:c6:2b:
        23:08:63:0d:8d:ca:b6:bf:6d:94:7a:2d:67:01:cf:14:35:6b:
        bd:29:2a:4c:7c:22:ef:11:88:f1:86:2f:62:b9:b2:33:54:53:
        a2:64:84:b6:74:94:53:9d:53:37:61:bc:95:22:df:9d:c6:65:
        29:0d:d9:8c:7d:19:d3:2f:46:ba:53:e6:c9:a1:b8:69:ae:ff:
        fb:62:c6:c0:f3:cd:b9:53:a3:3c:7b:47:ca:e1:66:56:a6:cb:
        b7:76:53:8c:21:ed:95:d1:a7:ea:a8:1c:2a:e7:7d:de:bd:42:
        1a:fa:03:1f:fa:11:34:a0:4f:84:cd:da:f3:44:d5:f8:f0:6b:
        06:00:fd:10:cc:c7:5f:78:f7:9a:2d:20:60:04:95:93:e5:55:
        01:a6:ab:5b:eb:f7:2d:3d:a7:48:bc:37:e3:d2:a8:1a:6e:a1:
        60:b4:8f:35
-----BEGIN CERTIFICATE-----
MIIE8zCCA9ugAwIBAgIBQTANBgkqhkiG9w0BAQUFADCBmTESMBAGA1UEAxMJQmlv
bmV0IENBMQswCQYDVQQGEwJVUzERMA8GA1UECBMIQ29sb3JhZG8xEDAOBgNVBAcT
B0JvdWxkZXIxJDAiBgNVBAoTG0Jpb1NlcnZlIFNwYWNlIFRlY2hub2xvZ2llczEr
MCkGCSqGSIb3DQEJARYcYmlvbmV0QGJpb3NlcnZlLmNvbG9yYWRvLmVkdTAeFw0x
MDA0MjgxNDU4NTZaFw0xMTA0MjgxNDU4NTZaMIGkMQswCQYDVQQGEwJVUzERMA8G
A1UECBMIQ29sb3JhZG8xJDAiBgNVBAoTG0Jpb1NlcnZlIFNwYWNlIFRlY2hub2xv
Z2llczEXMBUGA1UECxMOTm9kZSBvciBDbGllbnQxFjAUBgNVBAMTDUVOVjo6SE9T
VE5BTUUxKzApBgkqhkiG9w0BCQEWHGJpb25ldEBiaW9zZXJ2ZS5jb2xvcmFkby5l
ZHUwggEiMA0GCSqGSIb3DQEBAQUAA4IBDwAwggEKAoIBAQDLUZ5ndEXycAcH6Bo/
4q7XYUM/8yln5X9XlZG2oXxTAnInPvMGrqFL6XXTb12xm5qjGSodDOonJrBQUHuH
CH1qQ6xbHSEQ9T7wdNHzQ4T1/SehwLyBAvN82AjMyr7lbzA+/qGoFylP++82K/oQ
Udiwx8oMAzePP8K+LMuxCrJnDmKjLf1wkIiO0d58nRG0wvy5p8uWjTTuB9AYErW+
nF/XGq9WDUfbjj3AU8Ez36RvFidCARByNSMjcJ8PNoybOg+Qn3eq+yRg6xZ1IXFK
u+q10C3Taw9HjyS3ujkbKz1Fr4QUUKiav4qPFDInLPjYy7oY2oSnh430/m4DcNzc
VbVHAgMBAAGjggE3MIIBMzAJBgNVHRMEAjAAMB0GA1UdDgQWBBS2M83+q6BtuSbG
lmh3yv8gcd7qVDCBzgYDVR0jBIHGMIHDgBRdkUekdnmqnoQupcgQYVF7tLAMs6GB
n6SBnDCBmTESMBAGA1UEAxMJQmlvbmV0IENBMQswCQYDVQQGEwJVUzERMA8GA1UE
CBMIQ29sb3JhZG8xEDAOBgNVBAcTB0JvdWxkZXIxJDAiBgNVBAoTG0Jpb1NlcnZl
IFNwYWNlIFRlY2hub2xvZ2llczErMCkGCSqGSIb3DQEJARYcYmlvbmV0QGJpb3Nl
cnZlLmNvbG9yYWRvLmVkdYIJAMIj6jFxzlHZMDYGCWCGSAGG+EIBBAQpFidodHRw
czovL2Jpb3NlcnZlLmNvbHJhZG8uZWR1L2NhLWNybC5wZW0wDQYJKoZIhvcNAQEF
BQADggEBAJ6GGiY4bb2Gd458J7QTS0g7TRFgQl+0FAtYDk8w+BKP4hy7b+EsPATn
WSJTJo+ispIxSdYYnn2dCojzrX10GWQKafyDlUYppAnJ2dMWVA4cb9L/gi4KAW/G
KyMIYw2Nyra/bZR6LWcBzxQ1a70pKkx8Iu8RiPGGL2K5sjNUU6JkhLZ0lFOdUzdh
vJUi353GZSkN2Yx9GdMvRrpT5smhuGmu//tixsDzzblTozx7R8rhZlamy7d2U4wh
7ZXRp+qoHCrnfd69Qhr6Ax/6ETSgT4TN2vNE1fjwawYA/RDMx19495otIGAElZPl
VQGmq1vr9y09p0i8N+PSqBpuoWC0jzU=
-----END CERTIFICATE-----
