Certificate:
    Data:
        Version: 3 (0x2)
        Serial Number: 64 (0x40)
        Signature Algorithm: sha1WithRSAEncryption
        Issuer: CN=Bionet CA, C=US, ST=Colorado, L=Boulder, O=BioServe Space Technologies/emailAddress=bionet@bioserve.colorado.edu
        Validity
            Not Before: Apr 28 14:58:52 2010 GMT
            Not After : Apr 28 14:58:52 2011 GMT
        Subject: C=US, ST=Colorado, O=BioServe Space Technologies, OU=Node or Client, CN=ENV::HOSTNAME/emailAddress=bionet@bioserve.colorado.edu
        Subject Public Key Info:
            Public Key Algorithm: rsaEncryption
            RSA Public Key: (2048 bit)
                Modulus (2048 bit):
                    00:c3:b1:10:05:14:06:7d:b5:69:16:ad:6e:fd:70:
                    a4:72:1a:f2:ea:56:00:d0:4e:99:97:fd:fa:ac:0a:
                    98:6c:29:0a:f1:f0:73:bb:a8:a2:4b:9c:22:3d:9d:
                    3e:c5:81:9d:76:e6:aa:0c:9a:69:75:c6:b8:86:0c:
                    69:3c:32:fc:4e:f7:23:06:9b:eb:87:f3:ef:ef:14:
                    5e:20:d5:a4:5c:91:88:28:e5:61:b7:d4:0b:6b:ce:
                    a0:43:c4:33:60:c5:15:ba:9b:d9:75:c6:1a:54:0d:
                    ff:06:71:75:5a:ed:9b:3e:b8:f0:65:a1:9b:ac:16:
                    57:b4:3a:69:0b:fd:b8:de:80:8d:e4:8d:f3:8c:eb:
                    67:c7:d9:17:84:8a:d3:59:1d:72:8d:11:31:59:fc:
                    84:01:64:13:d2:06:af:29:ba:6e:69:c2:a5:ec:46:
                    e1:c5:e6:ec:7b:8b:73:5a:3f:d2:ad:ca:02:3c:d4:
                    42:0e:7a:9b:12:73:52:cb:2f:ba:6e:16:d3:9e:b5:
                    d3:c9:2a:45:80:4c:81:33:ae:9d:a6:71:e4:b0:08:
                    a2:47:f0:a1:de:1c:69:c4:39:dd:0e:28:02:7d:b3:
                    e7:d1:05:06:b4:90:d7:2e:67:f8:bd:96:1d:46:6f:
                    f7:d4:5e:13:c6:10:4f:87:e8:33:81:d0:ce:3f:e6:
                    17:5b
                Exponent: 65537 (0x10001)
        X509v3 extensions:
            X509v3 Basic Constraints: 
                CA:FALSE
            X509v3 Subject Key Identifier: 
                60:62:78:BA:D8:73:9D:37:A7:B2:92:EE:BB:D3:6C:50:93:B5:38:14
            X509v3 Authority Key Identifier: 
                keyid:5D:91:47:A4:76:79:AA:9E:84:2E:A5:C8:10:61:51:7B:B4:B0:0C:B3
                DirName:/CN=Bionet CA/C=US/ST=Colorado/L=Boulder/O=BioServe Space Technologies/emailAddress=bionet@bioserve.colorado.edu
                serial:C2:23:EA:31:71:CE:51:D9

            Netscape CA Revocation Url: 
                https://bioserve.colrado.edu/ca-crl.pem
    Signature Algorithm: sha1WithRSAEncryption
        b0:96:5d:ed:54:1f:fa:4a:f2:89:fa:f6:5c:a9:9a:e5:40:29:
        36:24:df:8d:79:5b:d4:98:73:1d:62:4a:78:d8:10:c8:80:3a:
        f2:d2:8d:e1:ae:9c:75:f6:7f:35:e8:03:0d:22:3e:67:5c:9f:
        c6:c7:92:fb:42:47:34:38:7d:bf:36:51:21:1d:8c:26:c6:6f:
        a1:31:da:c2:9f:d9:b5:07:19:84:82:93:39:42:67:ad:c1:9b:
        2e:78:6b:fe:a9:5f:5c:88:56:89:c7:63:18:17:93:c0:24:3c:
        88:a3:0b:ad:d2:f4:38:eb:87:b8:0a:48:4a:7e:c0:4c:d9:5c:
        78:93:f3:b3:ac:c0:b6:26:9d:39:d0:73:39:77:6d:be:16:61:
        7b:e1:54:6c:1a:51:8d:e7:c1:dd:d3:42:67:8e:59:7b:9b:c6:
        e8:7e:d9:af:f6:80:5a:9c:af:ba:21:05:0a:41:b2:ee:3a:be:
        28:60:92:92:71:a7:e3:69:4c:f7:6a:10:2a:d4:e0:96:55:1d:
        31:45:f6:cd:30:28:76:5c:2f:5a:e6:8e:d1:71:81:68:25:c7:
        86:d0:ca:79:66:f1:7d:8d:90:0f:be:c2:ef:25:a1:78:4d:58:
        e2:ce:20:9f:ef:ec:ce:e3:ce:74:ff:76:07:fa:62:25:68:54:
        f1:f3:a4:42
-----BEGIN CERTIFICATE-----
MIIE8zCCA9ugAwIBAgIBQDANBgkqhkiG9w0BAQUFADCBmTESMBAGA1UEAxMJQmlv
bmV0IENBMQswCQYDVQQGEwJVUzERMA8GA1UECBMIQ29sb3JhZG8xEDAOBgNVBAcT
B0JvdWxkZXIxJDAiBgNVBAoTG0Jpb1NlcnZlIFNwYWNlIFRlY2hub2xvZ2llczEr
MCkGCSqGSIb3DQEJARYcYmlvbmV0QGJpb3NlcnZlLmNvbG9yYWRvLmVkdTAeFw0x
MDA0MjgxNDU4NTJaFw0xMTA0MjgxNDU4NTJaMIGkMQswCQYDVQQGEwJVUzERMA8G
A1UECBMIQ29sb3JhZG8xJDAiBgNVBAoTG0Jpb1NlcnZlIFNwYWNlIFRlY2hub2xv
Z2llczEXMBUGA1UECxMOTm9kZSBvciBDbGllbnQxFjAUBgNVBAMTDUVOVjo6SE9T
VE5BTUUxKzApBgkqhkiG9w0BCQEWHGJpb25ldEBiaW9zZXJ2ZS5jb2xvcmFkby5l
ZHUwggEiMA0GCSqGSIb3DQEBAQUAA4IBDwAwggEKAoIBAQDDsRAFFAZ9tWkWrW79
cKRyGvLqVgDQTpmX/fqsCphsKQrx8HO7qKJLnCI9nT7FgZ125qoMmml1xriGDGk8
MvxO9yMGm+uH8+/vFF4g1aRckYgo5WG31AtrzqBDxDNgxRW6m9l1xhpUDf8GcXVa
7Zs+uPBloZusFle0OmkL/bjegI3kjfOM62fH2ReEitNZHXKNETFZ/IQBZBPSBq8p
um5pwqXsRuHF5ux7i3NaP9KtygI81EIOepsSc1LLL7puFtOetdPJKkWATIEzrp2m
ceSwCKJH8KHeHGnEOd0OKAJ9s+fRBQa0kNcuZ/i9lh1Gb/fUXhPGEE+H6DOB0M4/
5hdbAgMBAAGjggE3MIIBMzAJBgNVHRMEAjAAMB0GA1UdDgQWBBRgYni62HOdN6ey
ku6702xQk7U4FDCBzgYDVR0jBIHGMIHDgBRdkUekdnmqnoQupcgQYVF7tLAMs6GB
n6SBnDCBmTESMBAGA1UEAxMJQmlvbmV0IENBMQswCQYDVQQGEwJVUzERMA8GA1UE
CBMIQ29sb3JhZG8xEDAOBgNVBAcTB0JvdWxkZXIxJDAiBgNVBAoTG0Jpb1NlcnZl
IFNwYWNlIFRlY2hub2xvZ2llczErMCkGCSqGSIb3DQEJARYcYmlvbmV0QGJpb3Nl
cnZlLmNvbG9yYWRvLmVkdYIJAMIj6jFxzlHZMDYGCWCGSAGG+EIBBAQpFidodHRw
czovL2Jpb3NlcnZlLmNvbHJhZG8uZWR1L2NhLWNybC5wZW0wDQYJKoZIhvcNAQEF
BQADggEBALCWXe1UH/pK8on69lypmuVAKTYk3415W9SYcx1iSnjYEMiAOvLSjeGu
nHX2fzXoAw0iPmdcn8bHkvtCRzQ4fb82USEdjCbGb6Ex2sKf2bUHGYSCkzlCZ63B
my54a/6pX1yIVonHYxgXk8AkPIijC63S9Djrh7gKSEp+wEzZXHiT87OswLYmnTnQ
czl3bb4WYXvhVGwaUY3nwd3TQmeOWXubxuh+2a/2gFqcr7ohBQpBsu46vihgkpJx
p+NpTPdqECrU4JZVHTFF9s0wKHZcL1rmjtFxgWglx4bQynlm8X2NkA++wu8loXhN
WOLOIJ/v7M7jznT/dgf6YiVoVPHzpEI=
-----END CERTIFICATE-----
